target datalayout = "e-m:e-p270:32:32-p271:32:32-p272:64:64-i64:64-i128:128-f80:128-n8:16:32:64-S128"
target triple = "x86_64-pc-linux-gnu"

%"class.(anonymous namespace)::cmQtAutoMocUicT" = type { %class.cmQtAutoGenerator, %"class.(anonymous namespace)::cmQtAutoMocUicT::BaseSettingsT", %"class.(anonymous namespace)::cmQtAutoMocUicT::BaseEvalT", %"class.(anonymous namespace)::cmQtAutoMocUicT::MocSettingsT", %"class.(anonymous namespace)::cmQtAutoMocUicT::MocEvalT", %"class.(anonymous namespace)::cmQtAutoMocUicT::UicSettingsT", %"class.(anonymous namespace)::cmQtAutoMocUicT::UicEvalT", %"class.std::__cxx11::basic_string", %"class.std::__cxx11::basic_string", %"class.std::__cxx11::basic_string", %"struct.std::atomic", %class.cmWorkerPool, %"class.std::mutex" }
%class.cmQtAutoGenerator = type { ptr, i32, [4 x i8], %"class.cmQtAutoGenerator::Logger", %"class.std::__cxx11::basic_string", %"class.std::__cxx11::basic_string", %class.cmFileTime, %"class.std::__cxx11::basic_string", %"class.std::__cxx11::basic_string", %"struct.cmQtAutoGenerator::ProjectDirsT" }
%"class.cmQtAutoGenerator::Logger" = type <{ %"class.std::mutex", i32, i8, [3 x i8] }>
%class.cmFileTime = type { i64 }
%"struct.cmQtAutoGenerator::ProjectDirsT" = type { %"class.std::__cxx11::basic_string", %"class.std::__cxx11::basic_string", %"class.std::__cxx11::basic_string", %"class.std::__cxx11::basic_string" }
%"class.(anonymous namespace)::cmQtAutoMocUicT::BaseSettingsT" = type { i8, i8, i8, %"struct.cmQtAutoGen::IntegerVersion", i32, i32, %"class.std::__cxx11::basic_string", %"class.std::__cxx11::basic_string", %"class.std::__cxx11::basic_string", %class.cmFileTime, %"class.std::__cxx11::basic_string", %"class.std::__cxx11::basic_string", %"class.std::__cxx11::basic_string", %"class.std::vector", %"class.std::vector" }
%"struct.cmQtAutoGen::IntegerVersion" = type { i32, i32 }
%"class.std::vector" = type { %"struct.std::_Vector_base" }
%"struct.std::_Vector_base" = type { %"struct.std::_Vector_base<std::__cxx11::basic_string<char>, std::allocator<std::__cxx11::basic_string<char>>>::_Vector_impl" }
%"struct.std::_Vector_base<std::__cxx11::basic_string<char>, std::allocator<std::__cxx11::basic_string<char>>>::_Vector_impl" = type { %"struct.std::_Vector_base<std::__cxx11::basic_string<char>, std::allocator<std::__cxx11::basic_string<char>>>::_Vector_impl_data" }
%"struct.std::_Vector_base<std::__cxx11::basic_string<char>, std::allocator<std::__cxx11::basic_string<char>>>::_Vector_impl_data" = type { ptr, ptr, ptr }
%"class.(anonymous namespace)::cmQtAutoMocUicT::BaseEvalT" = type { %"struct.std::atomic", %class.cmFileTime, %"class.(anonymous namespace)::cmQtAutoMocUicT::ParseCacheT", %"class.std::map", %"class.std::map" }
%"class.(anonymous namespace)::cmQtAutoMocUicT::ParseCacheT" = type { %"class.std::unordered_map" }
%"class.std::unordered_map" = type { %"class.std::_Hashtable" }
%"class.std::_Hashtable" = type { ptr, i64, %"struct.std::__detail::_Hash_node_base", i64, %"struct.std::__detail::_Prime_rehash_policy", ptr }
%"struct.std::__detail::_Hash_node_base" = type { ptr }
%"struct.std::__detail::_Prime_rehash_policy" = type { float, i64 }
%"class.std::map" = type { %"class.std::_Rb_tree" }
%"class.std::_Rb_tree" = type { %"struct.std::_Rb_tree<std::__cxx11::basic_string<char>, std::pair<const std::__cxx11::basic_string<char>, std::shared_ptr<(anonymous namespace)::cmQtAutoMocUicT::SourceFileT>>, std::_Select1st<std::pair<const std::__cxx11::basic_string<char>, std::shared_ptr<(anonymous namespace)::cmQtAutoMocUicT::SourceFileT>>>, std::less<std::__cxx11::basic_string<char>>>::_Rb_tree_impl" }
%"struct.std::_Rb_tree<std::__cxx11::basic_string<char>, std::pair<const std::__cxx11::basic_string<char>, std::shared_ptr<(anonymous namespace)::cmQtAutoMocUicT::SourceFileT>>, std::_Select1st<std::pair<const std::__cxx11::basic_string<char>, std::shared_ptr<(anonymous namespace)::cmQtAutoMocUicT::SourceFileT>>>, std::less<std::__cxx11::basic_string<char>>>::_Rb_tree_impl" = type { %"struct.std::_Rb_tree_key_compare", %"struct.std::_Rb_tree_header" }
%"struct.std::_Rb_tree_key_compare" = type { %"struct.std::less" }
%"struct.std::less" = type { i8 }
%"struct.std::_Rb_tree_header" = type { %"struct.std::_Rb_tree_node_base", i64 }
%"struct.std::_Rb_tree_node_base" = type { i32, ptr, ptr, ptr }
%"class.(anonymous namespace)::cmQtAutoMocUicT::MocSettingsT" = type { i8, i8, i8, i8, i8, %class.cmFileTime, %"class.std::__cxx11::basic_string", %"class.std::__cxx11::basic_string", %"class.std::__cxx11::basic_string", %"class.std::unordered_set", %"class.std::vector", %"class.std::vector", %"class.std::vector", %"class.std::vector", %"class.std::vector", %"class.std::vector", %"class.std::vector.24", %"class.std::vector.24", %"class.cmsys::RegularExpression" }
%"class.std::unordered_set" = type { %"class.std::_Hashtable.11" }
%"class.std::_Hashtable.11" = type { ptr, i64, %"struct.std::__detail::_Hash_node_base", i64, %"struct.std::__detail::_Prime_rehash_policy", ptr }
%"class.std::vector.24" = type { %"struct.std::_Vector_base.25" }
%"struct.std::_Vector_base.25" = type { %"struct.std::_Vector_base<(anonymous namespace)::cmQtAutoMocUicT::KeyExpT, std::allocator<(anonymous namespace)::cmQtAutoMocUicT::KeyExpT>>::_Vector_impl" }
%"struct.std::_Vector_base<(anonymous namespace)::cmQtAutoMocUicT::KeyExpT, std::allocator<(anonymous namespace)::cmQtAutoMocUicT::KeyExpT>>::_Vector_impl" = type { %"struct.std::_Vector_base<(anonymous namespace)::cmQtAutoMocUicT::KeyExpT, std::allocator<(anonymous namespace)::cmQtAutoMocUicT::KeyExpT>>::_Vector_impl_data" }
%"struct.std::_Vector_base<(anonymous namespace)::cmQtAutoMocUicT::KeyExpT, std::allocator<(anonymous namespace)::cmQtAutoMocUicT::KeyExpT>>::_Vector_impl_data" = type { ptr, ptr, ptr }
%"class.cmsys::RegularExpression" = type <{ %"class.cmsys::RegularExpressionMatch", i8, i8, [6 x i8], ptr, i64, ptr, i32, [4 x i8] }>
%"class.cmsys::RegularExpressionMatch" = type { [32 x ptr], [32 x ptr], ptr }
%"class.(anonymous namespace)::cmQtAutoMocUicT::MocEvalT" = type { %class.cmFileTime, %"class.std::map.29", %"class.std::map.29", %"class.std::map.29", %"class.std::map", %"class.std::unordered_set", i8, %"class.std::vector" }
%"class.std::map.29" = type { %"class.std::_Rb_tree.30" }
%"class.std::_Rb_tree.30" = type { %"struct.std::_Rb_tree<std::__cxx11::basic_string<char>, std::pair<const std::__cxx11::basic_string<char>, std::shared_ptr<(anonymous namespace)::cmQtAutoMocUicT::MappingT>>, std::_Select1st<std::pair<const std::__cxx11::basic_string<char>, std::shared_ptr<(anonymous namespace)::cmQtAutoMocUicT::MappingT>>>, std::less<std::__cxx11::basic_string<char>>>::_Rb_tree_impl" }
%"struct.std::_Rb_tree<std::__cxx11::basic_string<char>, std::pair<const std::__cxx11::basic_string<char>, std::shared_ptr<(anonymous namespace)::cmQtAutoMocUicT::MappingT>>, std::_Select1st<std::pair<const std::__cxx11::basic_string<char>, std::shared_ptr<(anonymous namespace)::cmQtAutoMocUicT::MappingT>>>, std::less<std::__cxx11::basic_string<char>>>::_Rb_tree_impl" = type { %"struct.std::_Rb_tree_key_compare", %"struct.std::_Rb_tree_header" }
%"class.(anonymous namespace)::cmQtAutoMocUicT::UicSettingsT" = type { i8, i8, %class.cmFileTime, %"class.std::__cxx11::basic_string", %"class.std::unordered_set", %"class.std::vector", %"class.std::unordered_map.34", %"class.std::vector", %"class.cmsys::RegularExpression" }
%"class.std::unordered_map.34" = type { %"class.std::_Hashtable.35" }
%"class.std::_Hashtable.35" = type { ptr, i64, %"struct.std::__detail::_Hash_node_base", i64, %"struct.std::__detail::_Prime_rehash_policy", ptr }
%"class.(anonymous namespace)::cmQtAutoMocUicT::UicEvalT" = type { %"class.std::map", %"class.std::map.29", %"class.std::unordered_set" }
%"class.std::__cxx11::basic_string" = type { %"struct.std::__cxx11::basic_string<char>::_Alloc_hider", i64, %union.anon }
%"struct.std::__cxx11::basic_string<char>::_Alloc_hider" = type { ptr }
%union.anon = type { i64, [8 x i8] }
%"struct.std::atomic" = type { %"struct.std::__atomic_base" }
%"struct.std::__atomic_base" = type { i8 }
%class.cmWorkerPool = type { ptr, i32, %"class.std::unique_ptr" }
%"class.std::unique_ptr" = type { %"struct.std::__uniq_ptr_data" }
%"struct.std::__uniq_ptr_data" = type { %"class.std::__uniq_ptr_impl" }
%"class.std::__uniq_ptr_impl" = type { %"class.std::tuple" }
%"class.std::tuple" = type { %"struct.std::_Tuple_impl" }
%"struct.std::_Tuple_impl" = type { %"struct.std::_Head_base.49" }
%"struct.std::_Head_base.49" = type { ptr }
%"class.std::mutex" = type { %"class.std::__mutex_base" }
%"class.std::__mutex_base" = type { %union.pthread_mutex_t }
%union.pthread_mutex_t = type { %struct.__pthread_mutex_s }
%struct.__pthread_mutex_s = type { i32, i32, i32, i32, i32, i16, i16, %struct.__pthread_internal_list }
%struct.__pthread_internal_list = type { ptr, ptr }

; Function Attrs: mustprogress nounwind uwtable
define internal void @_ZN12_GLOBAL__N_115cmQtAutoMocUicTD2Ev(ptr noundef nonnull align 8 dereferenceable(3064) %0) unnamed_addr #6 align 2 {
  %2 = alloca ptr, align 8
  store ptr %0, ptr %2, align 8
  %3 = load ptr, ptr %2, align 8
  store ptr getelementptr inbounds ({ [6 x ptr] }, ptr @_ZTVN12_GLOBAL__N_115cmQtAutoMocUicTE, i32 0, i32 0, i32 2), ptr %3, align 8
  %4 = getelementptr inbounds %"class.(anonymous namespace)::cmQtAutoMocUicT", ptr %3, i32 0, i32 11
  call void @_ZN12cmWorkerPoolD1Ev(ptr noundef nonnull align 8 dereferenceable(24) %4) #3
  %5 = getelementptr inbounds %"class.(anonymous namespace)::cmQtAutoMocUicT", ptr %3, i32 0, i32 9
  call void @_ZNSt7__cxx1112basic_stringIcSt11char_traitsIcESaIcEED1Ev(ptr noundef nonnull align 8 dereferenceable(32) %5) #3
  %6 = getelementptr inbounds %"class.(anonymous namespace)::cmQtAutoMocUicT", ptr %3, i32 0, i32 8
  call void @_ZNSt7__cxx1112basic_stringIcSt11char_traitsIcESaIcEED1Ev(ptr noundef nonnull align 8 dereferenceable(32) %6) #3
  %7 = getelementptr inbounds %"class.(anonymous namespace)::cmQtAutoMocUicT", ptr %3, i32 0, i32 7
  call void @_ZNSt7__cxx1112basic_stringIcSt11char_traitsIcESaIcEED1Ev(ptr noundef nonnull align 8 dereferenceable(32) %7) #3
  %8 = getelementptr inbounds %"class.(anonymous namespace)::cmQtAutoMocUicT", ptr %3, i32 0, i32 6
  call void @_ZN12_GLOBAL__N_115cmQtAutoMocUicT8UicEvalTD2Ev(ptr noundef nonnull align 8 dereferenceable(152) %8) #3
  %9 = getelementptr inbounds %"class.(anonymous namespace)::cmQtAutoMocUicT", ptr %3, i32 0, i32 5
  call void @_ZN12_GLOBAL__N_115cmQtAutoMocUicT12UicSettingsTD2Ev(ptr noundef nonnull align 8 dereferenceable(768) %9) #3
  %10 = getelementptr inbounds %"class.(anonymous namespace)::cmQtAutoMocUicT", ptr %3, i32 0, i32 4
  call void @_ZN12_GLOBAL__N_115cmQtAutoMocUicT8MocEvalTD2Ev(ptr noundef nonnull align 8 dereferenceable(288) %10) #3
  %11 = getelementptr inbounds %"class.(anonymous namespace)::cmQtAutoMocUicT", ptr %3, i32 0, i32 3
  call void @_ZN12_GLOBAL__N_115cmQtAutoMocUicT12MocSettingsTD2Ev(ptr noundef nonnull align 8 dereferenceable(920) %11) #3
  %12 = getelementptr inbounds %"class.(anonymous namespace)::cmQtAutoMocUicT", ptr %3, i32 0, i32 2
  call void @_ZN12_GLOBAL__N_115cmQtAutoMocUicT9BaseEvalTD2Ev(ptr noundef nonnull align 8 dereferenceable(168) %12) #3
  %13 = getelementptr inbounds %"class.(anonymous namespace)::cmQtAutoMocUicT", ptr %3, i32 0, i32 1
  call void @_ZN12_GLOBAL__N_115cmQtAutoMocUicT13BaseSettingsTD2Ev(ptr noundef nonnull align 8 dereferenceable(272) %13) #3
  call void @_ZN17cmQtAutoGeneratorD2Ev(ptr noundef nonnull align 8 dereferenceable(328) %3) #3
  ret void
}

; Function Attrs: mustprogress nounwind uwtable
define internal void @_ZN12_GLOBAL__N_115cmQtAutoMocUicTD0Ev(ptr noundef nonnull align 8 dereferenceable(3064) %0) unnamed_addr #6 align 2 {
  %2 = alloca ptr, align 8
  store ptr %0, ptr %2, align 8
  %3 = load ptr, ptr %2, align 8
  call void @_ZN12_GLOBAL__N_115cmQtAutoMocUicTD2Ev(ptr noundef nonnull align 8 dereferenceable(3064) %3) #3
  call void @_ZdlPv(ptr noundef %3) #16
  ret void
}